; Function Attrs: nounwind sspstrong uwtable
define dso_local i64 @rb_String(i64 noundef %0) local_unnamed_addr #2 {
  %2 = tail call i64 @rb_check_string_type(i64 noundef %0) #23
  %3 = icmp eq i64 %2, 4
  br i1 %3, label %4, label %6

4:                                                ; preds = %1
  %5 = tail call i64 @rb_convert_type_with_id(i64 noundef %0, i32 noundef 5, ptr noundef nonnull @.str.22, i64 noundef 3361)
  br label %6

6:                                                ; preds = %4, %1
  %.0 = phi i64 [ %5, %4 ], [ %2, %1 ]
  ret i64 %.0
}